target datalayout = "e-m:e-p270:32:32-p271:32:32-p272:64:64-i64:64-i128:128-f80:128-n8:16:32:64-S128"
target triple = "x86_64-pc-linux-gnu"

%struct.part_row_data_t = type { ptr, i32, i32, ptr, i32 }

; Function Attrs: nounwind uwtable
define dso_local i32 @job_res_fit_in_row(ptr noundef %0, ptr noundef %1) #0 {
  %3 = alloca i32, align 4
  %4 = alloca ptr, align 8
  %5 = alloca ptr, align 8
  store ptr %0, ptr %4, align 8
  store ptr %1, ptr %5, align 8
  %6 = load ptr, ptr %5, align 8
  %7 = getelementptr inbounds nuw %struct.part_row_data_t, ptr %6, i32 0, i32 2
  %8 = load i32, ptr %7, align 4
  %9 = icmp eq i32 %8, 0
  br i1 %9, label %15, label %10

10:                                               ; preds = %2
  %11 = load ptr, ptr %5, align 8
  %12 = getelementptr inbounds nuw %struct.part_row_data_t, ptr %11, i32 0, i32 3
  %13 = load ptr, ptr %12, align 8
  %14 = icmp ne ptr %13, null
  br i1 %14, label %16, label %15

15:                                               ; preds = %10, %2
  store i32 1, ptr %3, align 4
  br label %20

16:                                               ; preds = %10
  %17 = load ptr, ptr %4, align 8
  %18 = load ptr, ptr %5, align 8
  %19 = call i32 @_handle_job_res(ptr noundef %17, ptr noundef %18, i32 noundef 2)
  store i32 %19, ptr %3, align 4
  br label %20

20:                                               ; preds = %16, %15
  %21 = load i32, ptr %3, align 4
  ret i32 %21
}