; Function Attrs: nounwind uwtable
define dso_local range(i32 0, 2) i32 @job_res_fit_in_row(ptr noundef readonly captures(none) %0, ptr noundef captures(none) %1) local_unnamed_addr #1 {
  %3 = getelementptr inbounds nuw i8, ptr %1, i64 12
  %4 = load i32, ptr %3, align 4
  %5 = icmp eq i32 %4, 0
  br i1 %5, label %11, label %6

6:                                                ; preds = %2
  %7 = getelementptr inbounds nuw i8, ptr %1, i64 16
  %8 = load ptr, ptr %7, align 8
  %.not = icmp eq ptr %8, null
  br i1 %.not, label %11, label %9

9:                                                ; preds = %6
  %10 = tail call fastcc i32 @_handle_job_res(ptr noundef %0, ptr noundef nonnull %1, i32 noundef 2)
  br label %11

11:                                               ; preds = %2, %6, %9
  %.0 = phi i32 [ %10, %9 ], [ 1, %6 ], [ 1, %2 ]
  ret i32 %.0
}